target datalayout = "e-m:e-p270:32:32-p271:32:32-p272:64:64-i64:64-i128:128-f80:128-n8:16:32:64-S128"
target triple = "x86_64-pc-linux-gnu"

%struct.XML_Memory_Handling_Suite = type { ptr, ptr, ptr }
%struct.XML_ParserStruct = type { ptr, ptr, ptr, %struct.XML_Memory_Handling_Suite, ptr, ptr, ptr, i64, ptr, i64, i8, i32, ptr, ptr, ptr, ptr, ptr, ptr, ptr, ptr, ptr, ptr, ptr, ptr, ptr, ptr, ptr, ptr, ptr, ptr, ptr, ptr, ptr, ptr, ptr, ptr, ptr, ptr, %struct.INIT_ENCODING, ptr, ptr, i8, i8, ptr, ptr, ptr, ptr, %struct.prolog_state, ptr, i32, ptr, ptr, ptr, ptr, ptr, i8, i32, ptr, ptr, ptr, ptr, ptr, ptr, ptr, ptr, ptr, i8, i8, ptr, ptr, ptr, ptr, ptr, ptr, i32, i32, i32, ptr, ptr, i64, i8, %struct.position, %struct.STRING_POOL, %struct.STRING_POOL, ptr, i32, i8, ptr, %struct.XML_ParsingStatus, i8, i8, i32, i64, %struct.accounting, %struct.entity_stats }
%struct.INIT_ENCODING = type { %struct.encoding, ptr }
%struct.encoding = type { [4 x ptr], [2 x ptr], ptr, ptr, ptr, ptr, ptr, ptr, ptr, ptr, ptr, ptr, i32, i8, i8 }
%struct.prolog_state = type { ptr, i32, i32, i32, i32, i32 }
%struct.position = type { i64, i64 }
%struct.STRING_POOL = type { ptr, ptr, ptr, ptr, ptr, ptr }
%struct.XML_ParsingStatus = type { i32, i8 }
%struct.accounting = type { i64, i64, i64, float, i64 }
%struct.entity_stats = type { i32, i32, i32, i64 }
%struct.open_internal_entity = type { ptr, ptr, ptr, ptr, i32, i8 }

; Function Attrs: nounwind uwtable
define internal void @reportDefault(ptr noundef %0, ptr noundef %1, ptr noundef %2, ptr noundef %3) #0 {
  %5 = alloca ptr, align 8
  %6 = alloca ptr, align 8
  %7 = alloca ptr, align 8
  %8 = alloca ptr, align 8
  %9 = alloca i32, align 4
  %10 = alloca ptr, align 8
  %11 = alloca ptr, align 8
  %12 = alloca ptr, align 8
  store ptr %0, ptr %5, align 8, !tbaa !12
  store ptr %1, ptr %6, align 8, !tbaa !228
  store ptr %2, ptr %7, align 8, !tbaa !3
  store ptr %3, ptr %8, align 8, !tbaa !3
  %13 = load ptr, ptr %6, align 8, !tbaa !228
  %14 = getelementptr inbounds nuw %struct.encoding, ptr %13, i32 0, i32 13
  %15 = load i8, ptr %14, align 4, !tbaa !229
  %16 = icmp ne i8 %15, 0
  br i1 %16, label %81, label %17

17:                                               ; preds = %4
  call void @llvm.lifetime.start.p0(i64 4, ptr %9) #11
  call void @llvm.lifetime.start.p0(i64 8, ptr %10) #11
  call void @llvm.lifetime.start.p0(i64 8, ptr %11) #11
  %18 = load ptr, ptr %6, align 8, !tbaa !228
  %19 = load ptr, ptr %5, align 8, !tbaa !12
  %20 = getelementptr inbounds nuw %struct.XML_ParserStruct, ptr %19, i32 0, i32 37
  %21 = load ptr, ptr %20, align 8, !tbaa !213
  %22 = icmp eq ptr %18, %21
  br i1 %22, label %23, label %28

23:                                               ; preds = %17
  %24 = load ptr, ptr %5, align 8, !tbaa !12
  %25 = getelementptr inbounds nuw %struct.XML_ParserStruct, ptr %24, i32 0, i32 50
  store ptr %25, ptr %10, align 8, !tbaa !203
  %26 = load ptr, ptr %5, align 8, !tbaa !12
  %27 = getelementptr inbounds nuw %struct.XML_ParserStruct, ptr %26, i32 0, i32 51
  store ptr %27, ptr %11, align 8, !tbaa !203
  br label %37

28:                                               ; preds = %17
  %29 = load ptr, ptr %5, align 8, !tbaa !12
  %30 = getelementptr inbounds nuw %struct.XML_ParserStruct, ptr %29, i32 0, i32 53
  %31 = load ptr, ptr %30, align 8, !tbaa !69
  %32 = getelementptr inbounds nuw %struct.open_internal_entity, ptr %31, i32 0, i32 0
  store ptr %32, ptr %10, align 8, !tbaa !203
  %33 = load ptr, ptr %5, align 8, !tbaa !12
  %34 = getelementptr inbounds nuw %struct.XML_ParserStruct, ptr %33, i32 0, i32 53
  %35 = load ptr, ptr %34, align 8, !tbaa !69
  %36 = getelementptr inbounds nuw %struct.open_internal_entity, ptr %35, i32 0, i32 1
  store ptr %36, ptr %11, align 8, !tbaa !203
  br label %37

37:                                               ; preds = %28, %23
  br label %38

38:                                               ; preds = %78, %37
  call void @llvm.lifetime.start.p0(i64 8, ptr %12) #11
  %39 = load ptr, ptr %5, align 8, !tbaa !12
  %40 = getelementptr inbounds nuw %struct.XML_ParserStruct, ptr %39, i32 0, i32 12
  %41 = load ptr, ptr %40, align 8, !tbaa !42
  store ptr %41, ptr %12, align 8, !tbaa !3
  %42 = load ptr, ptr %6, align 8, !tbaa !228
  %43 = getelementptr inbounds nuw %struct.encoding, ptr %42, i32 0, i32 10
  %44 = load ptr, ptr %43, align 8, !tbaa !230
  %45 = load ptr, ptr %6, align 8, !tbaa !228
  %46 = load ptr, ptr %8, align 8, !tbaa !3
  %47 = load ptr, ptr %5, align 8, !tbaa !12
  %48 = getelementptr inbounds nuw %struct.XML_ParserStruct, ptr %47, i32 0, i32 13
  %49 = load ptr, ptr %48, align 8, !tbaa !43
  %50 = call i32 %44(ptr noundef %45, ptr noundef %7, ptr noundef %46, ptr noundef %12, ptr noundef %49)
  store i32 %50, ptr %9, align 4, !tbaa !174
  %51 = load ptr, ptr %7, align 8, !tbaa !3
  %52 = load ptr, ptr %11, align 8, !tbaa !203
  store ptr %51, ptr %52, align 8, !tbaa !3
  %53 = load ptr, ptr %5, align 8, !tbaa !12
  %54 = getelementptr inbounds nuw %struct.XML_ParserStruct, ptr %53, i32 0, i32 21
  %55 = load ptr, ptr %54, align 8, !tbaa !103
  %56 = load ptr, ptr %5, align 8, !tbaa !12
  %57 = getelementptr inbounds nuw %struct.XML_ParserStruct, ptr %56, i32 0, i32 1
  %58 = load ptr, ptr %57, align 8, !tbaa !95
  %59 = load ptr, ptr %5, align 8, !tbaa !12
  %60 = getelementptr inbounds nuw %struct.XML_ParserStruct, ptr %59, i32 0, i32 12
  %61 = load ptr, ptr %60, align 8, !tbaa !42
  %62 = load ptr, ptr %12, align 8, !tbaa !3
  %63 = load ptr, ptr %5, align 8, !tbaa !12
  %64 = getelementptr inbounds nuw %struct.XML_ParserStruct, ptr %63, i32 0, i32 12
  %65 = load ptr, ptr %64, align 8, !tbaa !42
  %66 = ptrtoint ptr %62 to i64
  %67 = ptrtoint ptr %65 to i64
  %68 = sub i64 %66, %67
  %69 = trunc i64 %68 to i32
  call void %55(ptr noundef %58, ptr noundef %61, i32 noundef %69)
  %70 = load ptr, ptr %7, align 8, !tbaa !3
  %71 = load ptr, ptr %10, align 8, !tbaa !203
  store ptr %70, ptr %71, align 8, !tbaa !3
  call void @llvm.lifetime.end.p0(i64 8, ptr %12) #11
  br label %72

72:                                               ; preds = %38
  %73 = load i32, ptr %9, align 4, !tbaa !174
  %74 = icmp ne i32 %73, 0
  br i1 %74, label %75, label %78

75:                                               ; preds = %72
  %76 = load i32, ptr %9, align 4, !tbaa !174
  %77 = icmp ne i32 %76, 1
  br label %78

78:                                               ; preds = %75, %72
  %79 = phi i1 [ false, %72 ], [ %77, %75 ]
  br i1 %79, label %38, label %80, !llvm.loop !231

80:                                               ; preds = %78
  call void @llvm.lifetime.end.p0(i64 8, ptr %11) #11
  call void @llvm.lifetime.end.p0(i64 8, ptr %10) #11
  call void @llvm.lifetime.end.p0(i64 4, ptr %9) #11
  br label %95

81:                                               ; preds = %4
  %82 = load ptr, ptr %5, align 8, !tbaa !12
  %83 = getelementptr inbounds nuw %struct.XML_ParserStruct, ptr %82, i32 0, i32 21
  %84 = load ptr, ptr %83, align 8, !tbaa !103
  %85 = load ptr, ptr %5, align 8, !tbaa !12
  %86 = getelementptr inbounds nuw %struct.XML_ParserStruct, ptr %85, i32 0, i32 1
  %87 = load ptr, ptr %86, align 8, !tbaa !95
  %88 = load ptr, ptr %7, align 8, !tbaa !3
  %89 = load ptr, ptr %8, align 8, !tbaa !3
  %90 = load ptr, ptr %7, align 8, !tbaa !3
  %91 = ptrtoint ptr %89 to i64
  %92 = ptrtoint ptr %90 to i64
  %93 = sub i64 %91, %92
  %94 = trunc i64 %93 to i32
  call void %84(ptr noundef %87, ptr noundef %88, i32 noundef %94)
  br label %95

95:                                               ; preds = %81, %80
  ret void
}