; Function Attrs: nounwind uwtable
define internal fastcc void @reportDefault(ptr noundef captures(none) %0, ptr noundef %1, ptr noundef %2, ptr noundef %3) unnamed_addr #0 {
  %5 = alloca ptr, align 8
  %6 = alloca ptr, align 8
  store ptr %2, ptr %5, align 8, !tbaa !117
  %7 = getelementptr inbounds nuw i8, ptr %1, i64 132
  %8 = load i8, ptr %7, align 4, !tbaa !213
  %.not = icmp eq i8 %8, 0
  br i1 %.not, label %9, label %42

9:                                                ; preds = %4
  %10 = getelementptr inbounds nuw i8, ptr %0, i64 304
  %11 = load ptr, ptr %10, align 8, !tbaa !206
  %12 = icmp eq ptr %1, %11
  br i1 %12, label %13, label %16

13:                                               ; preds = %9
  %14 = getelementptr inbounds nuw i8, ptr %0, i64 560
  %15 = getelementptr inbounds nuw i8, ptr %0, i64 568
  br label %20

16:                                               ; preds = %9
  %17 = getelementptr inbounds nuw i8, ptr %0, i64 584
  %18 = load ptr, ptr %17, align 8, !tbaa !78
  %19 = getelementptr inbounds nuw i8, ptr %18, i64 8
  br label %20

20:                                               ; preds = %16, %13
  %.022 = phi ptr [ %14, %13 ], [ %18, %16 ]
  %.0 = phi ptr [ %15, %13 ], [ %19, %16 ]
  %21 = getelementptr inbounds nuw i8, ptr %0, i64 104
  %22 = getelementptr inbounds nuw i8, ptr %1, i64 112
  %23 = getelementptr inbounds nuw i8, ptr %0, i64 112
  %24 = getelementptr inbounds nuw i8, ptr %0, i64 176
  %25 = getelementptr inbounds nuw i8, ptr %0, i64 8
  br label %26

26:                                               ; preds = %26, %20
  call void @llvm.lifetime.start.p0(i64 8, ptr nonnull %6) #25
  %27 = load ptr, ptr %21, align 8, !tbaa !39
  store ptr %27, ptr %6, align 8, !tbaa !117
  %28 = load ptr, ptr %22, align 8, !tbaa !214
  %29 = load ptr, ptr %23, align 8, !tbaa !40
  %30 = call i32 %28(ptr noundef nonnull %1, ptr noundef nonnull %5, ptr noundef %3, ptr noundef nonnull %6, ptr noundef %29) #25
  %31 = load ptr, ptr %5, align 8, !tbaa !117
  store ptr %31, ptr %.0, align 8, !tbaa !117
  %32 = load ptr, ptr %24, align 8, !tbaa !129
  %33 = load ptr, ptr %25, align 8, !tbaa !142
  %34 = load ptr, ptr %21, align 8, !tbaa !39
  %35 = load ptr, ptr %6, align 8, !tbaa !117
  %36 = ptrtoint ptr %35 to i64
  %37 = ptrtoint ptr %34 to i64
  %38 = sub i64 %36, %37
  %39 = trunc i64 %38 to i32
  call void %32(ptr noundef %33, ptr noundef %34, i32 noundef %39) #25
  %40 = load ptr, ptr %5, align 8, !tbaa !117
  store ptr %40, ptr %.022, align 8, !tbaa !117
  call void @llvm.lifetime.end.p0(i64 8, ptr nonnull %6) #25
  %41 = icmp ugt i32 %30, 1
  br i1 %41, label %26, label %.loopexit, !llvm.loop !215

42:                                               ; preds = %4
  %43 = getelementptr inbounds nuw i8, ptr %0, i64 176
  %44 = load ptr, ptr %43, align 8, !tbaa !129
  %45 = getelementptr inbounds nuw i8, ptr %0, i64 8
  %46 = load ptr, ptr %45, align 8, !tbaa !142
  %47 = ptrtoint ptr %3 to i64
  %48 = ptrtoint ptr %2 to i64
  %49 = sub i64 %47, %48
  %50 = trunc i64 %49 to i32
  tail call void %44(ptr noundef %46, ptr noundef %2, i32 noundef %50) #25
  br label %.loopexit

.loopexit:                                        ; preds = %26, %42
  ret void
}